target datalayout = "e-m:e-p270:32:32-p271:32:32-p272:64:64-i64:64-i128:128-f80:128-n8:16:32:64-S128"
target triple = "x86_64-pc-linux-gnu"

%struct.H5VL_loc_params_t = type { i32, i32, %union.anon.0 }
%union.anon.0 = type { %struct.H5VL_loc_by_idx }
%struct.H5VL_loc_by_idx = type { ptr, i32, i32, i64, i64 }
%struct.H5VL_attr_get_args_t = type { i32, %union.anon }
%union.anon = type { %struct.H5VL_attr_get_name_args_t }
%struct.H5VL_attr_get_name_args_t = type { %struct.H5VL_loc_params_t, i64, ptr, ptr }
%struct.anon.1 = type { i64 }

@H5_libinit_g = external global i8, align 1
@H5_libterm_g = external global i8, align 1
@.str = private unnamed_addr constant [97 x i8] c"generated/home/dtcxzyw/WorkSpace/Projects/compilers/llvm-opt-benchmark/bench/hdf5/hdf5/src/H5A.c\00", align 1
@H5E_FUNC_g = external global i64, align 8
@H5E_CANTINIT_g = external global i64, align 8
@.str.1 = private unnamed_addr constant [30 x i8] c"library initialization failed\00", align 1
@H5E_CANTSET_g = external global i64, align 8
@.str.2 = private unnamed_addr constant [22 x i8] c"can't set API context\00", align 1
@H5E_ATTR_g = external global i64, align 8
@__func__.H5Aget_space = private unnamed_addr constant [13 x i8] c"H5Aget_space\00", align 1
@H5E_ARGS_g = external global i64, align 8
@H5E_BADTYPE_g = external global i64, align 8
@.str.37 = private unnamed_addr constant [17 x i8] c"not an attribute\00", align 1
@H5P_LST_DATASET_XFER_ID_g = external global i64, align 8
@H5E_CANTGET_g = external global i64, align 8
@.str.38 = private unnamed_addr constant [37 x i8] c"unable to get dataspace of attribute\00", align 1

; Function Attrs: nounwind uwtable
define i64 @H5Aget_space(i64 noundef %0) #0 {
  %2 = alloca i64, align 8
  %3 = alloca ptr, align 8
  %4 = alloca %struct.H5VL_attr_get_args_t, align 8
  %5 = alloca i64, align 8
  %6 = alloca i8, align 1
  %7 = alloca i8, align 1
  store i64 %0, ptr %2, align 8
  store ptr null, ptr %3, align 8
  store i64 -1, ptr %5, align 8
  store i8 0, ptr %6, align 1
  store i8 0, ptr %7, align 1
  %8 = load i8, ptr @H5_libinit_g, align 1
  %9 = trunc i8 %8 to i1
  br i1 %9, label %14, label %10

10:                                               ; preds = %1
  %11 = load i8, ptr @H5_libterm_g, align 1
  %12 = trunc i8 %11 to i1
  %13 = xor i1 %12, true
  br label %14

14:                                               ; preds = %10, %1
  %15 = phi i1 [ false, %1 ], [ %13, %10 ]
  %16 = xor i1 %15, true
  %17 = xor i1 %16, true
  %18 = zext i1 %17 to i32
  %19 = sext i32 %18 to i64
  %20 = icmp ne i64 %19, 0
  br i1 %20, label %21, label %45

21:                                               ; preds = %14
  %22 = call i32 @H5_init_library()
  %23 = icmp slt i32 %22, 0
  %24 = xor i1 %23, true
  %25 = xor i1 %24, true
  %26 = zext i1 %25 to i32
  %27 = sext i32 %26 to i64
  %28 = icmp ne i64 %27, 0
  br i1 %28, label %29, label %44

29:                                               ; preds = %21
  br label %30

30:                                               ; preds = %29
  br label %31

31:                                               ; preds = %30
  br label %32

32:                                               ; preds = %31
  %33 = load i64, ptr @H5E_FUNC_g, align 8
  %34 = load i64, ptr @H5E_CANTINIT_g, align 8
  %35 = call i32 (ptr, ptr, i32, i64, i64, ptr, ...) @H5E_printf_stack(ptr noundef @.str, ptr noundef @__func__.H5Aget_space, i32 noundef 1090, i64 noundef %33, i64 noundef %34, ptr noundef @.str.1)
  br label %36

36:                                               ; preds = %32
  store i8 1, ptr %7, align 1
  %37 = load i8, ptr %7, align 1
  %38 = trunc i8 %37 to i1
  %39 = zext i1 %38 to i8
  store i8 %39, ptr %7, align 1
  br label %40

40:                                               ; preds = %36
  br label %41

41:                                               ; preds = %40
  store i64 -1, ptr %5, align 8
  br label %116

42:                                               ; No predecessors!
  br label %43

43:                                               ; preds = %42
  br label %44

44:                                               ; preds = %43, %21
  br label %45

45:                                               ; preds = %44, %14
  %46 = call i32 @H5CX_push()
  %47 = icmp slt i32 %46, 0
  %48 = xor i1 %47, true
  %49 = xor i1 %48, true
  %50 = zext i1 %49 to i32
  %51 = sext i32 %50 to i64
  %52 = icmp ne i64 %51, 0
  br i1 %52, label %53, label %68

53:                                               ; preds = %45
  br label %54

54:                                               ; preds = %53
  br label %55

55:                                               ; preds = %54
  br label %56

56:                                               ; preds = %55
  %57 = load i64, ptr @H5E_FUNC_g, align 8
  %58 = load i64, ptr @H5E_CANTSET_g, align 8
  %59 = call i32 (ptr, ptr, i32, i64, i64, ptr, ...) @H5E_printf_stack(ptr noundef @.str, ptr noundef @__func__.H5Aget_space, i32 noundef 1090, i64 noundef %57, i64 noundef %58, ptr noundef @.str.2)
  br label %60

60:                                               ; preds = %56
  store i8 1, ptr %7, align 1
  %61 = load i8, ptr %7, align 1
  %62 = trunc i8 %61 to i1
  %63 = zext i1 %62 to i8
  store i8 %63, ptr %7, align 1
  br label %64

64:                                               ; preds = %60
  br label %65

65:                                               ; preds = %64
  store i64 -1, ptr %5, align 8
  br label %116

66:                                               ; No predecessors!
  br label %67

67:                                               ; preds = %66
  br label %69

68:                                               ; preds = %45
  store i8 1, ptr %6, align 1
  br label %69

69:                                               ; preds = %68, %67
  %70 = call i32 @H5E_clear_stack()
  %71 = load i64, ptr %2, align 8
  %72 = call ptr @H5I_object_verify(i64 noundef %71, i32 noundef 7)
  store ptr %72, ptr %3, align 8
  %73 = icmp eq ptr null, %72
  br i1 %73, label %74, label %89

74:                                               ; preds = %69
  br label %75

75:                                               ; preds = %74
  br label %76

76:                                               ; preds = %75
  br label %77

77:                                               ; preds = %76
  %78 = load i64, ptr @H5E_ARGS_g, align 8
  %79 = load i64, ptr @H5E_BADTYPE_g, align 8
  %80 = call i32 (ptr, ptr, i32, i64, i64, ptr, ...) @H5E_printf_stack(ptr noundef @.str, ptr noundef @__func__.H5Aget_space, i32 noundef 1094, i64 noundef %78, i64 noundef %79, ptr noundef @.str.37)
  br label %81

81:                                               ; preds = %77
  store i8 1, ptr %7, align 1
  %82 = load i8, ptr %7, align 1
  %83 = trunc i8 %82 to i1
  %84 = zext i1 %83 to i8
  store i8 %84, ptr %7, align 1
  br label %85

85:                                               ; preds = %81
  br label %86

86:                                               ; preds = %85
  store i64 -1, ptr %5, align 8
  br label %116

87:                                               ; No predecessors!
  br label %88

88:                                               ; preds = %87
  br label %89

89:                                               ; preds = %88, %69
  %90 = getelementptr inbounds %struct.H5VL_attr_get_args_t, ptr %4, i32 0, i32 0
  store i32 3, ptr %90, align 8
  %91 = getelementptr inbounds %struct.H5VL_attr_get_args_t, ptr %4, i32 0, i32 1
  %92 = getelementptr inbounds %struct.anon.1, ptr %91, i32 0, i32 0
  store i64 -1, ptr %92, align 8
  %93 = load ptr, ptr %3, align 8
  %94 = load i64, ptr @H5P_LST_DATASET_XFER_ID_g, align 8
  %95 = call i32 @H5VL_attr_get(ptr noundef %93, ptr noundef %4, i64 noundef %94, ptr noundef null)
  %96 = icmp slt i32 %95, 0
  br i1 %96, label %97, label %112

97:                                               ; preds = %89
  br label %98

98:                                               ; preds = %97
  br label %99

99:                                               ; preds = %98
  br label %100

100:                                              ; preds = %99
  %101 = load i64, ptr @H5E_ATTR_g, align 8
  %102 = load i64, ptr @H5E_CANTGET_g, align 8
  %103 = call i32 (ptr, ptr, i32, i64, i64, ptr, ...) @H5E_printf_stack(ptr noundef @.str, ptr noundef @__func__.H5Aget_space, i32 noundef 1102, i64 noundef %101, i64 noundef %102, ptr noundef @.str.38)
  br label %104

104:                                              ; preds = %100
  store i8 1, ptr %7, align 1
  %105 = load i8, ptr %7, align 1
  %106 = trunc i8 %105 to i1
  %107 = zext i1 %106 to i8
  store i8 %107, ptr %7, align 1
  br label %108

108:                                              ; preds = %104
  br label %109

109:                                              ; preds = %108
  store i64 -1, ptr %5, align 8
  br label %116

110:                                              ; No predecessors!
  br label %111

111:                                              ; preds = %110
  br label %112

112:                                              ; preds = %111, %89
  %113 = getelementptr inbounds %struct.H5VL_attr_get_args_t, ptr %4, i32 0, i32 1
  %114 = getelementptr inbounds %struct.anon.1, ptr %113, i32 0, i32 0
  %115 = load i64, ptr %114, align 8
  store i64 %115, ptr %5, align 8
  br label %116

116:                                              ; preds = %112, %109, %86, %65, %41
  %117 = load i8, ptr %6, align 1
  %118 = trunc i8 %117 to i1
  %119 = xor i1 %118, true
  %120 = xor i1 %119, true
  %121 = zext i1 %120 to i32
  %122 = sext i32 %121 to i64
  %123 = icmp ne i64 %122, 0
  br i1 %123, label %124, label %126

124:                                              ; preds = %116
  %125 = call i32 @H5CX_pop(i1 noundef zeroext true)
  store i8 0, ptr %6, align 1
  br label %126

126:                                              ; preds = %124, %116
  %127 = load i8, ptr %7, align 1
  %128 = trunc i8 %127 to i1
  %129 = xor i1 %128, true
  %130 = xor i1 %129, true
  %131 = zext i1 %130 to i32
  %132 = sext i32 %131 to i64
  %133 = icmp ne i64 %132, 0
  br i1 %133, label %134, label %136

134:                                              ; preds = %126
  %135 = call i32 @H5E_dump_api_stack()
  br label %136

136:                                              ; preds = %134, %126
  %137 = load i64, ptr %5, align 8
  ret i64 %137
}